; Function Attrs: mustprogress nounwind uwtable
define hidden noundef zeroext i8 @_ZN23java_lang_boxing_object9get_valueEP7oopDescP6jvalue(ptr noundef %0, ptr nocapture noundef writeonly %1) local_unnamed_addr #0 align 2 {
  %3 = load i8, ptr @UseCompressedClassPointers, align 1
  %4 = trunc i8 %3 to i1
  %5 = getelementptr inbounds i8, ptr %0, i64 8
  br i1 %4, label %6, label %16

6:                                                ; preds = %2
  %7 = load i32, ptr %5, align 8
  %8 = load ptr, ptr @_ZN23CompressedKlassPointers5_baseE, align 8
  %9 = load i32, ptr @_ZN23CompressedKlassPointers6_shiftE, align 4
  %10 = ptrtoint ptr %8 to i64
  %11 = zext i32 %7 to i64
  %12 = zext nneg i32 %9 to i64
  %13 = shl i64 %11, %12
  %14 = add i64 %13, %10
  %15 = inttoptr i64 %14 to ptr
  br label %_ZNK7oopDesc5klassEv.exit

16:                                               ; preds = %2
  %17 = load ptr, ptr %5, align 8
  br label %_ZNK7oopDesc5klassEv.exit

_ZNK7oopDesc5klassEv.exit:                        ; preds = %6, %16
  %.0.i = phi ptr [ %15, %6 ], [ %17, %16 ]
  %18 = tail call noundef zeroext i8 @_ZN9vmClasses14box_klass_typeEP5Klass(ptr noundef %.0.i) #19
  switch i8 %18, label %75 [
    i8 4, label %19
    i8 5, label %26
    i8 6, label %33
    i8 7, label %40
    i8 8, label %47
    i8 9, label %54
    i8 10, label %61
    i8 11, label %68
  ]

19:                                               ; preds = %_ZNK7oopDesc5klassEv.exit
  %20 = load i32, ptr @_ZN23java_lang_boxing_object13_value_offsetE, align 4
  %21 = ptrtoint ptr %0 to i64
  %22 = sext i32 %20 to i64
  %23 = add nsw i64 %22, %21
  %24 = inttoptr i64 %23 to ptr
  %25 = load i8, ptr %24, align 1
  store i8 %25, ptr %1, align 8
  br label %75

26:                                               ; preds = %_ZNK7oopDesc5klassEv.exit
  %27 = load i32, ptr @_ZN23java_lang_boxing_object13_value_offsetE, align 4
  %28 = ptrtoint ptr %0 to i64
  %29 = sext i32 %27 to i64
  %30 = add nsw i64 %29, %28
  %31 = inttoptr i64 %30 to ptr
  %32 = load i16, ptr %31, align 2
  store i16 %32, ptr %1, align 8
  br label %75

33:                                               ; preds = %_ZNK7oopDesc5klassEv.exit
  %34 = load i32, ptr @_ZN23java_lang_boxing_object13_value_offsetE, align 4
  %35 = ptrtoint ptr %0 to i64
  %36 = sext i32 %34 to i64
  %37 = add nsw i64 %36, %35
  %38 = inttoptr i64 %37 to ptr
  %39 = load float, ptr %38, align 4
  store float %39, ptr %1, align 8
  br label %75

40:                                               ; preds = %_ZNK7oopDesc5klassEv.exit
  %41 = load i32, ptr @_ZN23java_lang_boxing_object18_long_value_offsetE, align 4
  %42 = ptrtoint ptr %0 to i64
  %43 = sext i32 %41 to i64
  %44 = add nsw i64 %43, %42
  %45 = inttoptr i64 %44 to ptr
  %46 = load double, ptr %45, align 8
  store double %46, ptr %1, align 8
  br label %75

47:                                               ; preds = %_ZNK7oopDesc5klassEv.exit
  %48 = load i32, ptr @_ZN23java_lang_boxing_object13_value_offsetE, align 4
  %49 = ptrtoint ptr %0 to i64
  %50 = sext i32 %48 to i64
  %51 = add nsw i64 %50, %49
  %52 = inttoptr i64 %51 to ptr
  %53 = load i8, ptr %52, align 1
  store i8 %53, ptr %1, align 8
  br label %75

54:                                               ; preds = %_ZNK7oopDesc5klassEv.exit
  %55 = load i32, ptr @_ZN23java_lang_boxing_object13_value_offsetE, align 4
  %56 = ptrtoint ptr %0 to i64
  %57 = sext i32 %55 to i64
  %58 = add nsw i64 %57, %56
  %59 = inttoptr i64 %58 to ptr
  %60 = load i16, ptr %59, align 2
  store i16 %60, ptr %1, align 8
  br label %75

61:                                               ; preds = %_ZNK7oopDesc5klassEv.exit
  %62 = load i32, ptr @_ZN23java_lang_boxing_object13_value_offsetE, align 4
  %63 = ptrtoint ptr %0 to i64
  %64 = sext i32 %62 to i64
  %65 = add nsw i64 %64, %63
  %66 = inttoptr i64 %65 to ptr
  %67 = load i32, ptr %66, align 4
  store i32 %67, ptr %1, align 8
  br label %75

68:                                               ; preds = %_ZNK7oopDesc5klassEv.exit
  %69 = load i32, ptr @_ZN23java_lang_boxing_object18_long_value_offsetE, align 4
  %70 = ptrtoint ptr %0 to i64
  %71 = sext i32 %69 to i64
  %72 = add nsw i64 %71, %70
  %73 = inttoptr i64 %72 to ptr
  %74 = load i64, ptr %73, align 8
  store i64 %74, ptr %1, align 8
  br label %75

75:                                               ; preds = %19, %26, %33, %40, %47, %54, %61, %68, %_ZNK7oopDesc5klassEv.exit
  %.0 = phi i8 [ 99, %_ZNK7oopDesc5klassEv.exit ], [ 11, %68 ], [ 10, %61 ], [ 9, %54 ], [ 8, %47 ], [ 7, %40 ], [ 6, %33 ], [ 5, %26 ], [ 4, %19 ]
  ret i8 %.0
}